#include <math.h>
#include <stdio.h>
#include <stdlib.h>
#include <string.h>

int main()
{
    char zfc[1000],cs[1000];
memset(zfc,0,1000);
memset(cs,0,1000);
int y,e=0,j=0,i=0;
gets(zfc);
    y=strlen(zfc);
while(i<y){
e=0;
cs[j]=zfc[i];
if(zfc[i]==' '){
for(int a=i+1;a<y;a++){
if(zfc[a]==' '){
e++;
continue;
}
else{
break;
}
}
i=i+e;
}
j++;
i++;
}
cs[j+1]='\0';
printf("%s",cs);
return 0;
}

